; ModuleID = '39/1736.c'
source_filename = "39/1736.c"
target datalayout = "e-m:e-p270:32:32-p271:32:32-p272:64:64-i64:64-f80:128-n8:16:32:64-S128"
target triple = "x86_64-pc-linux-gnu"

%struct.s = type { [20 x i8], i32, i32, i8, i8, i32 }

@.str = private unnamed_addr constant [3 x i8] c"%d\00", align 1
@.str.1 = private unnamed_addr constant [3 x i8] c"%s\00", align 1
@.str.2 = private unnamed_addr constant [3 x i8] c"%c\00", align 1
@.str.3 = private unnamed_addr constant [10 x i8] c"%s\0A%d\0A%d\0A\00", align 1

; Function Attrs: noinline nounwind uwtable
define dso_local void @main() #0 {
  %1 = alloca [100 x %struct.s], align 16
  %2 = alloca [100 x i32], align 16
  %3 = alloca i32, align 4
  %4 = alloca i32, align 4
  %5 = alloca i32, align 4
  %6 = alloca i32, align 4
  %7 = alloca i64, align 8
  %8 = bitcast [100 x i32]* %2 to i8*
  call void @llvm.memset.p0i8.i64(i8* align 16 %8, i8 0, i64 400, i1 false)
  store i32 0, i32* %5, align 4
  store i32 0, i32* %6, align 4
  store i64 0, i64* %7, align 8
  %9 = call i32 (i8*, ...) @__isoc99_scanf(i8* getelementptr inbounds ([3 x i8], [3 x i8]* @.str, i64 0, i64 0), i32* %3)
  store i32 0, i32* %4, align 4
  br label %10

10:                                               ; preds = %178, %0
  %11 = load i32, i32* %4, align 4
  %12 = load i32, i32* %3, align 4
  %13 = icmp slt i32 %11, %12
  br i1 %13, label %14, label %181

14:                                               ; preds = %10
  %15 = load i32, i32* %4, align 4
  %16 = sext i32 %15 to i64
  %17 = getelementptr inbounds [100 x %struct.s], [100 x %struct.s]* %1, i64 0, i64 %16
  %18 = getelementptr inbounds %struct.s, %struct.s* %17, i32 0, i32 0
  %19 = getelementptr inbounds [20 x i8], [20 x i8]* %18, i64 0, i64 0
  %20 = call i32 (i8*, ...) @__isoc99_scanf(i8* getelementptr inbounds ([3 x i8], [3 x i8]* @.str.1, i64 0, i64 0), i8* %19)
  %21 = load i32, i32* %4, align 4
  %22 = sext i32 %21 to i64
  %23 = getelementptr inbounds [100 x %struct.s], [100 x %struct.s]* %1, i64 0, i64 %22
  %24 = getelementptr inbounds %struct.s, %struct.s* %23, i32 0, i32 1
  %25 = call i32 (i8*, ...) @__isoc99_scanf(i8* getelementptr inbounds ([3 x i8], [3 x i8]* @.str, i64 0, i64 0), i32* %24)
  %26 = load i32, i32* %4, align 4
  %27 = sext i32 %26 to i64
  %28 = getelementptr inbounds [100 x %struct.s], [100 x %struct.s]* %1, i64 0, i64 %27
  %29 = getelementptr inbounds %struct.s, %struct.s* %28, i32 0, i32 2
  %30 = call i32 (i8*, ...) @__isoc99_scanf(i8* getelementptr inbounds ([3 x i8], [3 x i8]* @.str, i64 0, i64 0), i32* %29)
  %31 = call i32 @getchar()
  %32 = load i32, i32* %4, align 4
  %33 = sext i32 %32 to i64
  %34 = getelementptr inbounds [100 x %struct.s], [100 x %struct.s]* %1, i64 0, i64 %33
  %35 = getelementptr inbounds %struct.s, %struct.s* %34, i32 0, i32 3
  %36 = call i32 (i8*, ...) @__isoc99_scanf(i8* getelementptr inbounds ([3 x i8], [3 x i8]* @.str.2, i64 0, i64 0), i8* %35)
  %37 = call i32 @getchar()
  %38 = load i32, i32* %4, align 4
  %39 = sext i32 %38 to i64
  %40 = getelementptr inbounds [100 x %struct.s], [100 x %struct.s]* %1, i64 0, i64 %39
  %41 = getelementptr inbounds %struct.s, %struct.s* %40, i32 0, i32 4
  %42 = call i32 (i8*, ...) @__isoc99_scanf(i8* getelementptr inbounds ([3 x i8], [3 x i8]* @.str.2, i64 0, i64 0), i8* %41)
  %43 = load i32, i32* %4, align 4
  %44 = sext i32 %43 to i64
  %45 = getelementptr inbounds [100 x %struct.s], [100 x %struct.s]* %1, i64 0, i64 %44
  %46 = getelementptr inbounds %struct.s, %struct.s* %45, i32 0, i32 5
  %47 = call i32 (i8*, ...) @__isoc99_scanf(i8* getelementptr inbounds ([3 x i8], [3 x i8]* @.str, i64 0, i64 0), i32* %46)
  %48 = load i32, i32* %4, align 4
  %49 = sext i32 %48 to i64
  %50 = getelementptr inbounds [100 x %struct.s], [100 x %struct.s]* %1, i64 0, i64 %49
  %51 = getelementptr inbounds %struct.s, %struct.s* %50, i32 0, i32 1
  %52 = load i32, i32* %51, align 4
  %53 = icmp sgt i32 %52, 80
  br i1 %53, label %54, label %70

54:                                               ; preds = %14
  %55 = load i32, i32* %4, align 4
  %56 = sext i32 %55 to i64
  %57 = getelementptr inbounds [100 x %struct.s], [100 x %struct.s]* %1, i64 0, i64 %56
  %58 = getelementptr inbounds %struct.s, %struct.s* %57, i32 0, i32 5
  %59 = load i32, i32* %58, align 4
  %60 = icmp sgt i32 %59, 0
  br i1 %60, label %61, label %70

61:                                               ; preds = %54
  %62 = load i32, i32* %4, align 4
  %63 = sext i32 %62 to i64
  %64 = getelementptr inbounds [100 x i32], [100 x i32]* %2, i64 0, i64 %63
  %65 = load i32, i32* %64, align 4
  %66 = add nsw i32 %65, 8000
  %67 = load i32, i32* %4, align 4
  %68 = sext i32 %67 to i64
  %69 = getelementptr inbounds [100 x i32], [100 x i32]* %2, i64 0, i64 %68
  store i32 %66, i32* %69, align 4
  br label %70

70:                                               ; preds = %61, %54, %14
  %71 = load i32, i32* %4, align 4
  %72 = sext i32 %71 to i64
  %73 = getelementptr inbounds [100 x %struct.s], [100 x %struct.s]* %1, i64 0, i64 %72
  %74 = getelementptr inbounds %struct.s, %struct.s* %73, i32 0, i32 1
  %75 = load i32, i32* %74, align 4
  %76 = icmp sgt i32 %75, 85
  br i1 %76, label %77, label %93

77:                                               ; preds = %70
  %78 = load i32, i32* %4, align 4
  %79 = sext i32 %78 to i64
  %80 = getelementptr inbounds [100 x %struct.s], [100 x %struct.s]* %1, i64 0, i64 %79
  %81 = getelementptr inbounds %struct.s, %struct.s* %80, i32 0, i32 2
  %82 = load i32, i32* %81, align 4
  %83 = icmp sgt i32 %82, 80
  br i1 %83, label %84, label %93

84:                                               ; preds = %77
  %85 = load i32, i32* %4, align 4
  %86 = sext i32 %85 to i64
  %87 = getelementptr inbounds [100 x i32], [100 x i32]* %2, i64 0, i64 %86
  %88 = load i32, i32* %87, align 4
  %89 = add nsw i32 %88, 4000
  %90 = load i32, i32* %4, align 4
  %91 = sext i32 %90 to i64
  %92 = getelementptr inbounds [100 x i32], [100 x i32]* %2, i64 0, i64 %91
  store i32 %89, i32* %92, align 4
  br label %93

93:                                               ; preds = %84, %77, %70
  %94 = load i32, i32* %4, align 4
  %95 = sext i32 %94 to i64
  %96 = getelementptr inbounds [100 x %struct.s], [100 x %struct.s]* %1, i64 0, i64 %95
  %97 = getelementptr inbounds %struct.s, %struct.s* %96, i32 0, i32 1
  %98 = load i32, i32* %97, align 4
  %99 = icmp sgt i32 %98, 90
  br i1 %99, label %100, label %109

100:                                              ; preds = %93
  %101 = load i32, i32* %4, align 4
  %102 = sext i32 %101 to i64
  %103 = getelementptr inbounds [100 x i32], [100 x i32]* %2, i64 0, i64 %102
  %104 = load i32, i32* %103, align 4
  %105 = add nsw i32 %104, 2000
  %106 = load i32, i32* %4, align 4
  %107 = sext i32 %106 to i64
  %108 = getelementptr inbounds [100 x i32], [100 x i32]* %2, i64 0, i64 %107
  store i32 %105, i32* %108, align 4
  br label %109

109:                                              ; preds = %100, %93
  %110 = load i32, i32* %4, align 4
  %111 = sext i32 %110 to i64
  %112 = getelementptr inbounds [100 x %struct.s], [100 x %struct.s]* %1, i64 0, i64 %111
  %113 = getelementptr inbounds %struct.s, %struct.s* %112, i32 0, i32 1
  %114 = load i32, i32* %113, align 4
  %115 = icmp sgt i32 %114, 85
  br i1 %115, label %116, label %133

116:                                              ; preds = %109
  %117 = load i32, i32* %4, align 4
  %118 = sext i32 %117 to i64
  %119 = getelementptr inbounds [100 x %struct.s], [100 x %struct.s]* %1, i64 0, i64 %118
  %120 = getelementptr inbounds %struct.s, %struct.s* %119, i32 0, i32 4
  %121 = load i8, i8* %120, align 1
  %122 = sext i8 %121 to i32
  %123 = icmp eq i32 %122, 89
  br i1 %123, label %124, label %133

124:                                              ; preds = %116
  %125 = load i32, i32* %4, align 4
  %126 = sext i32 %125 to i64
  %127 = getelementptr inbounds [100 x i32], [100 x i32]* %2, i64 0, i64 %126
  %128 = load i32, i32* %127, align 4
  %129 = add nsw i32 %128, 1000
  %130 = load i32, i32* %4, align 4
  %131 = sext i32 %130 to i64
  %132 = getelementptr inbounds [100 x i32], [100 x i32]* %2, i64 0, i64 %131
  store i32 %129, i32* %132, align 4
  br label %133

133:                                              ; preds = %124, %116, %109
  %134 = load i32, i32* %4, align 4
  %135 = sext i32 %134 to i64
  %136 = getelementptr inbounds [100 x %struct.s], [100 x %struct.s]* %1, i64 0, i64 %135
  %137 = getelementptr inbounds %struct.s, %struct.s* %136, i32 0, i32 2
  %138 = load i32, i32* %137, align 4
  %139 = icmp sgt i32 %138, 80
  br i1 %139, label %140, label %157

140:                                              ; preds = %133
  %141 = load i32, i32* %4, align 4
  %142 = sext i32 %141 to i64
  %143 = getelementptr inbounds [100 x %struct.s], [100 x %struct.s]* %1, i64 0, i64 %142
  %144 = getelementptr inbounds %struct.s, %struct.s* %143, i32 0, i32 3
  %145 = load i8, i8* %144, align 4
  %146 = sext i8 %145 to i32
  %147 = icmp eq i32 %146, 89
  br i1 %147, label %148, label %157

148:                                              ; preds = %140
  %149 = load i32, i32* %4, align 4
  %150 = sext i32 %149 to i64
  %151 = getelementptr inbounds [100 x i32], [100 x i32]* %2, i64 0, i64 %150
  %152 = load i32, i32* %151, align 4
  %153 = add nsw i32 %152, 850
  %154 = load i32, i32* %4, align 4
  %155 = sext i32 %154 to i64
  %156 = getelementptr inbounds [100 x i32], [100 x i32]* %2, i64 0, i64 %155
  store i32 %153, i32* %156, align 4
  br label %157

157:                                              ; preds = %148, %140, %133
  %158 = load i64, i64* %7, align 8
  %159 = load i32, i32* %4, align 4
  %160 = sext i32 %159 to i64
  %161 = getelementptr inbounds [100 x i32], [100 x i32]* %2, i64 0, i64 %160
  %162 = load i32, i32* %161, align 4
  %163 = sext i32 %162 to i64
  %164 = add nsw i64 %158, %163
  store i64 %164, i64* %7, align 8
  %165 = load i32, i32* %4, align 4
  %166 = sext i32 %165 to i64
  %167 = getelementptr inbounds [100 x i32], [100 x i32]* %2, i64 0, i64 %166
  %168 = load i32, i32* %167, align 4
  %169 = load i32, i32* %5, align 4
  %170 = icmp sgt i32 %168, %169
  br i1 %170, label %171, label %177

171:                                              ; preds = %157
  %172 = load i32, i32* %4, align 4
  %173 = sext i32 %172 to i64
  %174 = getelementptr inbounds [100 x i32], [100 x i32]* %2, i64 0, i64 %173
  %175 = load i32, i32* %174, align 4
  store i32 %175, i32* %5, align 4
  %176 = load i32, i32* %4, align 4
  store i32 %176, i32* %6, align 4
  br label %177

177:                                              ; preds = %171, %157
  br label %178

178:                                              ; preds = %177
  %179 = load i32, i32* %4, align 4
  %180 = add nsw i32 %179, 1
  store i32 %180, i32* %4, align 4
  br label %10

181:                                              ; preds = %10
  %182 = load i32, i32* %6, align 4
  %183 = sext i32 %182 to i64
  %184 = getelementptr inbounds [100 x %struct.s], [100 x %struct.s]* %1, i64 0, i64 %183
  %185 = getelementptr inbounds %struct.s, %struct.s* %184, i32 0, i32 0
  %186 = getelementptr inbounds [20 x i8], [20 x i8]* %185, i64 0, i64 0
  %187 = load i32, i32* %5, align 4
  %188 = load i64, i64* %7, align 8
  %189 = call i32 (i8*, ...) @printf(i8* getelementptr inbounds ([10 x i8], [10 x i8]* @.str.3, i64 0, i64 0), i8* %186, i32 %187, i64 %188)
  ret void
}

; Function Attrs: argmemonly nounwind willreturn
declare void @llvm.memset.p0i8.i64(i8* nocapture writeonly, i8, i64, i1 immarg) #1

declare dso_local i32 @__isoc99_scanf(i8*, ...) #2

declare dso_local i32 @getchar() #2

declare dso_local i32 @printf(i8*, ...) #2


!llvm.module.flags = !{!0}
!llvm.ident = !{!1}

!0 = !{i32 1, !"wchar_size", i32 4}
!1 = !{!"clang version 10.0.0-4ubuntu1 "}
